(dp0
Vsg_bundle_data
p1
(dp2
Vtype
p3
VCustomNonProjectEntity13
p4
sVid
p5
I18
sVsg_system_name
p6
Vtk-framework-adobe
p7
sVsg_status_list
p8
Vdepl
p9
sVsg_deprecation_message
p10
NssVsg_version_data
p11
(dp12
Vtype
p13
VCustomNonProjectEntity09
p14
sVid
p15
I4089
sVcode
p16
Vv1.2.1
p17
sVsg_status_list
p18
Vprod
p19
sVdescription
p20
VFix signing issue
p21
sVtags
p22
(lp23
sVsg_detailed_release_notes
p24
NsVsg_documentation
p25
(dp26
Vurl
p27
Vhttps://developer.shotgridsoftware.com/360019620754
p28
sVname
p29
VDocumentation
p30
sVcontent_type
p31
NsVlink_type
p32
Vweb
p33
sg13
VAttachment
p34
sg15
I32480
ssVsg_payload
p35
(dp36
g27
Vhttps://s3-proxy.shotgunstudio.com/d18c13bf0e59a9a82f18be518a1b6b508bcbd774/bd5757ecdec759c9c1a2d329ea3e355573c4ba74/tk-framework-adobe_v1.2.1.zip?response-content-disposition=filename%3D%22tk-framework-adobe_v1.2.1.zip%22&x-amz-meta-user-id=42&x-amz-meta-user-type=ApiUser&X-Amz-Algorithm=AWS4-HMAC-SHA256&X-Amz-Credential=ASIAYJG6Z4JI7JM4P2EC%2F20240614%2Fus-west-2%2Fs3%2Faws4_request&X-Amz-Date=20240614T021905Z&X-Amz-SignedHeaders=host&X-Amz-Expires=900&X-Amz-Security-Token=IQoJb3JpZ2luX2VjEAIaCXVzLWVhc3QtMSJHMEUCIQDZF0RnIvwfXJ5%2FbBRoAt1Ki8z5BmvhLNznXBXZAOxQnQIgK7DV7iAB0qVYPc1x%2BGwP4eAAkjQ%2Bxr4y0%2F36spiCsZ0qoQIIm%2F%2F%2F%2F%2F%2F%2F%2F%2F%2F%2FARAAGgw1Njk1NTA0MzA4MDEiDNwGGjSx5fQoTXu15Cr1AWBNwS1tWAjvpxbIz4sa1NC6AnFghBFfCdb0PsB0v3Rhtt%2BG6%2F6J%2FItxV1%2BHt%2BqDRrp0SoZrBadtWNyu%2FJmKcjVXwVk5sCbWmkvvOoavZMmXC1cNFH%2FaKvhJRxshMrpGrvjTNLrjAaJXIcxF%2BtxzJl%2FEFyloTaV%2BL2flRa43cMc%2B%2F6nLRTG9kdDsPsuIvFLe52kXlEGcaXowwE4SiQcyz43PY6xyvakKohzhMzWHBrCDAd29hqN2ZtNIIlnD2UNNCH2ALO9axqJDENrgkP65Unfzwoaj4AMcQCP13txImZCjYF5vg6AohsUd%2FvntX6jC6Q2NrFSpMMjDrrMGOp0B4swtj5HYJMaFdtaFGFCjkMo2DWi12C0nC5jsxVBjZzRj1AuThqdZU5wl2HcTo4qnIUQkga3Pn69DPWHrJyrx0hPEMMvBDlctTD0ZIDyiQMDAE2mEcECr2dy1QBjN5tE7ALrvZMCDXDCR8vlpBz%2BEdKJ7v1uuyzzIY1nG7PbxE3IGGpK2Gbfl5%2BbUFmNaCIAcexSQInFTtpS00W7%2B1w%3D%3D&X-Amz-Signature=e47d3f9754ef7669e1210b200d42ff09a9eb193a8ad597b191cfa7c1ca10e04d
p37
sg29
Vtk-framework-adobe_v1.2.1.zip
p38
sg31
Vapplication/zip
p39
sg32
Vupload
p40
sg13
VAttachment
p41
sg15
I32481
sss.