(dp0
Vsg_bundle_data
p1
NsVsg_version_data
p2
(dp3
Vtype
p4
VCustomNonProjectEntity01
p5
sVid
p6
I2387
sVcode
p7
Vv0.21.0
p8
sVsg_status_list
p9
Vprod
p10
sVdescription
p11
VRebranding component for Flow Production Tracking
p12
sVtags
p13
(lp14
sVsg_detailed_release_notes
p15
NsVsg_documentation
p16
(dp17
Vurl
p18
Vhttps://help.autodesk.com/view/SGDEV/ENU/?contextId=SA_INTEGRATIONS_USER_GUIDE
p19
sVname
p20
VDocumentation
p21
sVcontent_type
p22
NsVlink_type
p23
Vweb
p24
sg4
VAttachment
p25
sg6
I32459
ssVsg_payload
p26
(dp27
g18
Vhttps://s3-proxy.shotgunstudio.com/d18c13bf0e59a9a82f18be518a1b6b508bcbd774/4befc09fb0108c91605d269a0894f4e26e19feee/sgtk_core_v0.21.0.zip?response-content-disposition=filename%3D%22sgtk_core_v0.21.0.zip%22&x-amz-meta-user-id=42&x-amz-meta-user-type=ApiUser&X-Amz-Algorithm=AWS4-HMAC-SHA256&X-Amz-Credential=ASIAYJG6Z4JI6FUNW7WR%2F20240614%2Fus-west-2%2Fs3%2Faws4_request&X-Amz-Date=20240614T022321Z&X-Amz-SignedHeaders=host&X-Amz-Expires=900&X-Amz-Security-Token=IQoJb3JpZ2luX2VjEAIaCXVzLWVhc3QtMSJGMEQCIDXHLxbAMxqfYyzOTN6BmqfXwzPXI6D95Kjn%2FyJByKYhAiB3ldeQ%2BwqVFTe9XrnGNmX8tnYaI7j%2F9v5hhIqdNOUzzSqhAgib%2F%2F%2F%2F%2F%2F%2F%2F%2F%2F8BEAAaDDU2OTU1MDQzMDgwMSIMTLLM7m1nWWE%2B3tavKvUBMaKNPyDKyP8phzlZd7I5hp%2FqRDZ9mnHM4AZR2WjhqW0pHccThcj%2BLsXbIUX4soKX51pEiXbvNnKt%2FCBnmiKcXoof8%2B0o7S16yZQLa7shbGtuMw4T7RYVe7wwQEuUov5XBXsNJtcCxg7xwo1RmxBSP6M7HgUPTW55x8Nf%2Bl0DysK%2FdiknOzGzjaO1%2BWOrMv8ro%2BBIiwJJk8dKdd%2FcUfKZ%2BmegUXeZ5Bgn%2FMprdNxKaoYksUOmkO3RqHOFWfm2zgSQ0odkUwdSY6qjzWSNOHbJ8fTCsV2jBrVTGAupfFh06yBmeD5nBkJqV1y6sQGN9r%2FYBEzkmlYwsseuswY6ngHZuXuLbyb1k%2FIoufhLLd%2FUi5pjKZHtRoEfYx3ajgdSp4GKWU27I8vCyoqIvqrjvwJFxGFXSgKzcNEiGvyzm2CTI3NgNqY0DsnFzaooVh2EraX3ueKYYFWjqNDPTgtYjYX7%2BbDrGF2MK7qmNiFlZQObEwd7uepOPmCZ3NljjtEZIdJI%2FWsYEx%2BMhHEDLakM14OEdIDdQeDc7E0kaf6VTw%3D%3D&X-Amz-Signature=925c4668cd2e5e2bbe1a06d601134ac972b806599cf075d30b5989d3b54925f4
p28
sg20
Vsgtk_core_v0.21.0.zip
p29
sg22
Vapplication/zip
p30
sg23
Vupload
p31
sg4
VAttachment
p32
sg6
I32460
sss.