(dp0
Vsg_bundle_data
p1
(dp2
Vtype
p3
VCustomNonProjectEntity13
p4
sVid
p5
I1
sVsg_system_name
p6
Vtk-framework-widget
p7
sVsg_status_list
p8
Vhidden
p9
sVsg_deprecation_message
p10
NssVsg_version_data
p11
(dp12
Vtype
p13
VCustomNonProjectEntity09
p14
sVid
p15
I938
sVcode
p16
Vv0.2.8
p17
sVsg_status_list
p18
Vprod
p19
sVdescription
p20
VAdds Python 3 support.
p21
sVtags
p22
(lp23
sVsg_detailed_release_notes
p24
NsVsg_documentation
p25
NsVsg_payload
p26
(dp27
Vurl
p28
Vhttps://s3-proxy.shotgunstudio.com/d18c13bf0e59a9a82f18be518a1b6b508bcbd774/5bf12ffba81768a80e4c3fb738de8f60794b139b/tk-framework-widget_v0.2.8.zip?response-content-disposition=filename%3D%22tk-framework-widget_v0.2.8.zip%22&x-amz-meta-user-id=42&x-amz-meta-user-type=ApiUser&X-Amz-Algorithm=AWS4-HMAC-SHA256&X-Amz-Credential=ASIAYJG6Z4JI3JKWDIEW%2F20240614%2Fus-west-2%2Fs3%2Faws4_request&X-Amz-Date=20240614T022012Z&X-Amz-SignedHeaders=host&X-Amz-Expires=900&X-Amz-Security-Token=IQoJb3JpZ2luX2VjEAIaCXVzLWVhc3QtMSJHMEUCIQC8sGY32Rfbl7agdxiwSLs%2FoQ9EEk%2FHdO5vSrNoFOyS9QIgCv%2BPRACpvPqrU7SxVeJeabRdkFS%2FhZxkkJqstalB%2BScqoQIIm%2F%2F%2F%2F%2F%2F%2F%2F%2F%2F%2FARAAGgw1Njk1NTA0MzA4MDEiDL30F1qa%2FRv2KPJ%2FoSr1Ack87gYcMtl6swRFTDGJkOXTYX4%2Bw5SlLRtIDt5xsFSGmsaahl8qEOArMc6tZI83viTv%2BhRumaTm5B7S%2FRhEe5Hka2V%2FoHlc4eEWoR8DACapiB%2Fc%2FHQ024cqkqrbd6L456va9ZJRq6h1eiVN5Yp6Ksv2KHhHTlrCUKjWXsquayblq4MHc6VHq5hMi%2Fc%2FIuNntURX6%2BqF4hm08DuzcBE5BvKXuv4GP2Y2o6V58eafuB3G9dFdiPB4Oo%2FqCgwTqQ1UAL859nQs64vdI50u9OjRPD4QtJ1eVG3aYUtc2lAbmlsceKJ9QQlTgJlKJHkMkSe64nUbojgHMJ68rrMGOp0Bx0fwovVRA2Z3ATUXbpLdMUqqyz9K3Ho%2FSTfgyz0QJOi7UmDtOygnlgii8hzkbAHTk4%2B0CrLVH%2FXk%2FlyeNy9tA%2BI9fofBdntBEUmSyVR4vYjrQ6UTXOgfKbuQerIJ%2B2FA%2F9e26eRSxGW5aGwUjq%2FdnVuH%2B6AB8G%2BV%2Bye5zxXxBRwT7zf9N1zvfMZsZm1mqCvgW8wlI6lv1Sbu%2B%2FM3IA%3D%3D&X-Amz-Signature=2be1bb9ca8fa75e4cd17b5e5fee0ceb9ab021bf599b144dd99b5b6c7d94e7928
p29
sVname
p30
Vtk-framework-widget_v0.2.8.zip
p31
sVcontent_type
p32
Vapplication/zip
p33
sVlink_type
p34
Vupload
p35
sg13
VAttachment
p36
sg15
I21722
sss.