(dp0
Vsg_bundle_data
p1
(dp2
Vtype
p3
VCustomNonProjectEntity03
p4
sVid
p5
I7
sVsg_system_name
p6
Vtk-3dsmax
p7
sVsg_status_list
p8
Vdepl
p9
sVsg_deprecation_message
p10
NssVsg_version_data
p11
(dp12
Vtype
p13
VCustomNonProjectEntity04
p14
sVid
p15
I4766
sVcode
p16
Vv1.3.0
p17
sVsg_status_list
p18
Vprod
p19
sVdescription
p20
VRebranding component for Flow Production Tracking
p21
sVtags
p22
(lp23
sVsg_detailed_release_notes
p24
NsVsg_documentation
p25
(dp26
Vurl
p27
Vhttps://developer.shotgridsoftware.com/219493317
p28
sVname
p29
VDocumentation
p30
sVcontent_type
p31
NsVlink_type
p32
Vweb
p33
sg13
VAttachment
p34
sg15
I32308
ssVsg_payload
p35
(dp36
g27
Vhttps://s3-proxy.shotgunstudio.com/d18c13bf0e59a9a82f18be518a1b6b508bcbd774/3b3c8aa419bbe2ca47169bf30e5a57d0b737a9c9/tk-3dsmax_v1.3.0.zip?response-content-disposition=filename%3D%22tk-3dsmax_v1.3.0.zip%22&x-amz-meta-user-id=42&x-amz-meta-user-type=ApiUser&X-Amz-Algorithm=AWS4-HMAC-SHA256&X-Amz-Credential=ASIAYJG6Z4JIS4F4DYHI%2F20240614%2Fus-west-2%2Fs3%2Faws4_request&X-Amz-Date=20240614T021739Z&X-Amz-SignedHeaders=host&X-Amz-Expires=900&X-Amz-Security-Token=IQoJb3JpZ2luX2VjEAIaCXVzLWVhc3QtMSJHMEUCIF%2FOCLH%2BzAnPNpou7SzhekQqpwF%2Bj278rqdFKgFhbD7GAiEAnKSlFWNO6IV%2B%2BVuQ63ozPFG%2Bh6nCYLjry1EEmoMtFHwqoQIIm%2F%2F%2F%2F%2F%2F%2F%2F%2F%2F%2FARAAGgw1Njk1NTA0MzA4MDEiDLpE9vZI%2BoP7vUB63ir1Ad2We0zPvEnPYiBGI89iho5sePKkxmt8KWlbJsURophRsfzVl%2FDaOloIEt1UK5lAfhGNweuhgRHcxJYzwy1VK3J1Jkd9Oj9p6YWTyH7E2ksE8qcPEtbkTWgAIFMv%2BrufC9Rmla%2FBvjEmkIh9wzAf1Ho9wWf8kFr2fV5veGM%2FwTu86cDaybKwPVPaAoF2cpl0lO6fKeJuJHCm9kZcVU05sSKJC%2BinRHLhk2tJSg5bcONuaPc6emgwnfBVszXtO0YmkmkQXSdrMmJcrMPpmguDlHdcqumhJWqJ3Z8In5xkvfpYmEJGXnQbzW0mm4Bky%2BELtTAShg4fMObIrrMGOp0BBRH1JL3tyw5ZawkGAabYTKHYrpxzpreiiJopSFPqXIIzsKXBfrpou8yJ0KqDNWoXSnEZYzy3OTvz18auVQG3Jqd8bpRWjaBA8Vkv7skbht0CEyKrjI1t7DpGuMeIl0LxT1oTRQ%2BVyyNKUxrAP0agaMhdY%2BkMt%2F3C4R0CkxtcNSvGAumA3eRhcdAnHHpMW5JWWNb6sYrFcwYIU1owuQ%3D%3D&X-Amz-Signature=d9fc603936f12742b2977c8f13b7f4fe9ea9264552de9e9cda59a6e7c8b2de4a
p37
sg29
Vtk-3dsmax_v1.3.0.zip
p38
sg31
Vapplication/zip
p39
sg32
Vupload
p40
sg13
VAttachment
p41
sg15
I32309
sss.