(dp0
Vsg_bundle_data
p1
(dp2
Vtype
p3
VCustomNonProjectEntity02
p4
sVid
p5
I17
sVsg_system_name
p6
Vtk-shotgun-launchpublish
p7
sVsg_status_list
p8
Vdepl
p9
sVsg_deprecation_message
p10
NssVsg_version_data
p11
(dp12
Vtype
p13
VCustomNonProjectEntity05
p14
sVid
p15
I6481
sVcode
p16
Vv0.7.0
p17
sVsg_status_list
p18
Vprod
p19
sVdescription
p20
VRebranding component for Flow Production Tracking
p21
sVtags
p22
(lp23
sVsg_detailed_release_notes
p24
NsVsg_documentation
p25
(dp26
Vurl
p27
Vhttps://developer.shotgridsoftware.com/219032908
p28
sVname
p29
VDocumentation
p30
sVcontent_type
p31
NsVlink_type
p32
Vweb
p33
sg13
VAttachment
p34
sg15
I32419
ssVsg_payload
p35
(dp36
g27
Vhttps://s3-proxy.shotgunstudio.com/d18c13bf0e59a9a82f18be518a1b6b508bcbd774/f67821f56cd6b28507c2b533cdb78dd806e0a735/tk-shotgun-launchpublish_v0.7.0.zip?response-content-disposition=filename%3D%22tk-shotgun-launchpublish_v0.7.0.zip%22&x-amz-meta-user-id=42&x-amz-meta-user-type=ApiUser&X-Amz-Algorithm=AWS4-HMAC-SHA256&X-Amz-Credential=ASIAYJG6Z4JI6FUNW7WR%2F20240614%2Fus-west-2%2Fs3%2Faws4_request&X-Amz-Date=20240614T022254Z&X-Amz-SignedHeaders=host&X-Amz-Expires=900&X-Amz-Security-Token=IQoJb3JpZ2luX2VjEAIaCXVzLWVhc3QtMSJGMEQCIDXHLxbAMxqfYyzOTN6BmqfXwzPXI6D95Kjn%2FyJByKYhAiB3ldeQ%2BwqVFTe9XrnGNmX8tnYaI7j%2F9v5hhIqdNOUzzSqhAgib%2F%2F%2F%2F%2F%2F%2F%2F%2F%2F8BEAAaDDU2OTU1MDQzMDgwMSIMTLLM7m1nWWE%2B3tavKvUBMaKNPyDKyP8phzlZd7I5hp%2FqRDZ9mnHM4AZR2WjhqW0pHccThcj%2BLsXbIUX4soKX51pEiXbvNnKt%2FCBnmiKcXoof8%2B0o7S16yZQLa7shbGtuMw4T7RYVe7wwQEuUov5XBXsNJtcCxg7xwo1RmxBSP6M7HgUPTW55x8Nf%2Bl0DysK%2FdiknOzGzjaO1%2BWOrMv8ro%2BBIiwJJk8dKdd%2FcUfKZ%2BmegUXeZ5Bgn%2FMprdNxKaoYksUOmkO3RqHOFWfm2zgSQ0odkUwdSY6qjzWSNOHbJ8fTCsV2jBrVTGAupfFh06yBmeD5nBkJqV1y6sQGN9r%2FYBEzkmlYwsseuswY6ngHZuXuLbyb1k%2FIoufhLLd%2FUi5pjKZHtRoEfYx3ajgdSp4GKWU27I8vCyoqIvqrjvwJFxGFXSgKzcNEiGvyzm2CTI3NgNqY0DsnFzaooVh2EraX3ueKYYFWjqNDPTgtYjYX7%2BbDrGF2MK7qmNiFlZQObEwd7uepOPmCZ3NljjtEZIdJI%2FWsYEx%2BMhHEDLakM14OEdIDdQeDc7E0kaf6VTw%3D%3D&X-Amz-Signature=34802b4f920c53daf0b4482729ae3047f8abb3c1238e91e804e75729c458ecb6
p37
sg29
Vtk-shotgun-launchpublish_v0.7.0.zip
p38
sg31
Vapplication/zip
p39
sg32
Vupload
p40
sg13
VAttachment
p41
sg15
I32420
sss.