(dp0
Vsg_bundle_data
p1
(dp2
Vtype
p3
VCustomNonProjectEntity02
p4
sVid
p5
I235
sVsg_system_name
p6
Vtk-multi-devutils
p7
sVsg_status_list
p8
Vhidden
p9
sVsg_deprecation_message
p10
NssVsg_version_data
p11
(dp12
Vtype
p13
VCustomNonProjectEntity05
p14
sVid
p15
I6467
sVcode
p16
Vv1.3.0
p17
sVsg_status_list
p18
Vprod
p19
sVdescription
p20
VRebranding component for Flow Production Tracking
p21
sVtags
p22
(lp23
sVsg_detailed_release_notes
p24
NsVsg_documentation
p25
NsVsg_payload
p26
(dp27
Vurl
p28
Vhttps://s3-proxy.shotgunstudio.com/d18c13bf0e59a9a82f18be518a1b6b508bcbd774/f9d39d5e1435f4851bd5278da0bcf9f54e327350/tk-multi-devutils_v1.3.0.zip?response-content-disposition=filename%3D%22tk-multi-devutils_v1.3.0.zip%22&x-amz-meta-user-id=42&x-amz-meta-user-type=ApiUser&X-Amz-Algorithm=AWS4-HMAC-SHA256&X-Amz-Credential=ASIAYJG6Z4JI6FUNW7WR%2F20240614%2Fus-west-2%2Fs3%2Faws4_request&X-Amz-Date=20240614T022221Z&X-Amz-SignedHeaders=host&X-Amz-Expires=900&X-Amz-Security-Token=IQoJb3JpZ2luX2VjEAIaCXVzLWVhc3QtMSJGMEQCIDXHLxbAMxqfYyzOTN6BmqfXwzPXI6D95Kjn%2FyJByKYhAiB3ldeQ%2BwqVFTe9XrnGNmX8tnYaI7j%2F9v5hhIqdNOUzzSqhAgib%2F%2F%2F%2F%2F%2F%2F%2F%2F%2F8BEAAaDDU2OTU1MDQzMDgwMSIMTLLM7m1nWWE%2B3tavKvUBMaKNPyDKyP8phzlZd7I5hp%2FqRDZ9mnHM4AZR2WjhqW0pHccThcj%2BLsXbIUX4soKX51pEiXbvNnKt%2FCBnmiKcXoof8%2B0o7S16yZQLa7shbGtuMw4T7RYVe7wwQEuUov5XBXsNJtcCxg7xwo1RmxBSP6M7HgUPTW55x8Nf%2Bl0DysK%2FdiknOzGzjaO1%2BWOrMv8ro%2BBIiwJJk8dKdd%2FcUfKZ%2BmegUXeZ5Bgn%2FMprdNxKaoYksUOmkO3RqHOFWfm2zgSQ0odkUwdSY6qjzWSNOHbJ8fTCsV2jBrVTGAupfFh06yBmeD5nBkJqV1y6sQGN9r%2FYBEzkmlYwsseuswY6ngHZuXuLbyb1k%2FIoufhLLd%2FUi5pjKZHtRoEfYx3ajgdSp4GKWU27I8vCyoqIvqrjvwJFxGFXSgKzcNEiGvyzm2CTI3NgNqY0DsnFzaooVh2EraX3ueKYYFWjqNDPTgtYjYX7%2BbDrGF2MK7qmNiFlZQObEwd7uepOPmCZ3NljjtEZIdJI%2FWsYEx%2BMhHEDLakM14OEdIDdQeDc7E0kaf6VTw%3D%3D&X-Amz-Signature=2279d7611cc23a01c7b432bba1544b695508aaf0d3a9fe4a2f4ba1bdeed8ed03
p29
sVname
p30
Vtk-multi-devutils_v1.3.0.zip
p31
sVcontent_type
p32
Vapplication/zip
p33
sVlink_type
p34
Vupload
p35
sg13
VAttachment
p36
sg15
I32356
sss.