(dp0
Vsg_bundle_data
p1
(dp2
Vtype
p3
VCustomNonProjectEntity07
p4
sVid
p5
I81
sVsg_system_name
p6
Vtk-config-default2
p7
sVsg_status_list
p8
Vhidden
p9
sVsg_deprecation_message
p10
NssVsg_version_data
p11
(dp12
Vtype
p13
VCustomNonProjectEntity08
p14
sVid
p15
I3744
sVcode
p16
Vv1.7.0
p17
sVsg_status_list
p18
Vprod
p19
sVdescription
p20
V[No wiki release notes found]
p21
sVtags
p22
(lp23
sVsg_detailed_release_notes
p24
NsVsg_documentation
p25
NsVsg_payload
p26
(dp27
Vurl
p28
Vhttps://s3-proxy.shotgunstudio.com/d18c13bf0e59a9a82f18be518a1b6b508bcbd774/bb0e6bfc66f1f8747d9b34b746612e7a34c6c587/tk-config-default2_v1.7.0.zip?response-content-disposition=filename%3D%22tk-config-default2_v1.7.0.zip%22&x-amz-meta-user-id=42&x-amz-meta-user-type=ApiUser&X-Amz-Algorithm=AWS4-HMAC-SHA256&X-Amz-Credential=ASIAYJG6Z4JI6FUNW7WR%2F20240614%2Fus-west-2%2Fs3%2Faws4_request&X-Amz-Date=20240614T023703Z&X-Amz-SignedHeaders=host&X-Amz-Expires=900&X-Amz-Security-Token=IQoJb3JpZ2luX2VjEAIaCXVzLWVhc3QtMSJGMEQCIDXHLxbAMxqfYyzOTN6BmqfXwzPXI6D95Kjn%2FyJByKYhAiB3ldeQ%2BwqVFTe9XrnGNmX8tnYaI7j%2F9v5hhIqdNOUzzSqhAgib%2F%2F%2F%2F%2F%2F%2F%2F%2F%2F8BEAAaDDU2OTU1MDQzMDgwMSIMTLLM7m1nWWE%2B3tavKvUBMaKNPyDKyP8phzlZd7I5hp%2FqRDZ9mnHM4AZR2WjhqW0pHccThcj%2BLsXbIUX4soKX51pEiXbvNnKt%2FCBnmiKcXoof8%2B0o7S16yZQLa7shbGtuMw4T7RYVe7wwQEuUov5XBXsNJtcCxg7xwo1RmxBSP6M7HgUPTW55x8Nf%2Bl0DysK%2FdiknOzGzjaO1%2BWOrMv8ro%2BBIiwJJk8dKdd%2FcUfKZ%2BmegUXeZ5Bgn%2FMprdNxKaoYksUOmkO3RqHOFWfm2zgSQ0odkUwdSY6qjzWSNOHbJ8fTCsV2jBrVTGAupfFh06yBmeD5nBkJqV1y6sQGN9r%2FYBEzkmlYwsseuswY6ngHZuXuLbyb1k%2FIoufhLLd%2FUi5pjKZHtRoEfYx3ajgdSp4GKWU27I8vCyoqIvqrjvwJFxGFXSgKzcNEiGvyzm2CTI3NgNqY0DsnFzaooVh2EraX3ueKYYFWjqNDPTgtYjYX7%2BbDrGF2MK7qmNiFlZQObEwd7uepOPmCZ3NljjtEZIdJI%2FWsYEx%2BMhHEDLakM14OEdIDdQeDc7E0kaf6VTw%3D%3D&X-Amz-Signature=473e040311eb9609d6bf85150a016e36bda2af00472082d0863767f8cd793877
p29
sVname
p30
Vtk-config-default2_v1.7.0.zip
p31
sVcontent_type
p32
Vapplication/zip
p33
sVlink_type
p34
Vupload
p35
sg13
VAttachment
p36
sg15
I32510
sss.