(dp0
Vsg_bundle_data
p1
(dp2
Vtype
p3
VCustomNonProjectEntity13
p4
sVid
p5
I3
sVsg_system_name
p6
Vtk-framework-shotgunutils
p7
sVsg_status_list
p8
Vdepl
p9
sVsg_deprecation_message
p10
NssVsg_version_data
p11
(dp12
Vtype
p13
VCustomNonProjectEntity09
p14
sVid
p15
I507
sVcode
p16
Vv4.4.15
p17
sVsg_status_list
p18
Vprod
p19
sVdescription
p20
VAll schema cache methods that accept entity type and field now handle bubble field notation
p21
sVtags
p22
(lp23
sVsg_detailed_release_notes
p24
(dp25
Vurl
p26
Vhttps://support.shotgunsoftware.com/hc/en-us/articles/219040008#v4.4.15
p27
sVname
p28
Vv4.4.15
p29
sVcontent_type
p30
NsVlink_type
p31
Vweb
p32
sg13
VAttachment
p33
sg15
I14974
ssVsg_documentation
p34
(dp35
g26
Vhttps://support.shotgunsoftware.com/hc/en-us/articles/219040008
p36
sg28
VDocumentation
p37
sg30
Nsg31
Vweb
p38
sg13
VAttachment
p39
sg15
I14976
ssVsg_payload
p40
(dp41
g26
Vhttps://s3-proxy.shotgunstudio.com/d18c13bf0e59a9a82f18be518a1b6b508bcbd774/499a0ea9caf57c7728609b6756639a80640649e0/tk-framework-shotgunutils_v4.4.15.zip?response-content-disposition=filename%3D%22tk-framework-shotgunutils_v4.4.15.zip%22&x-amz-meta-user-id=42&x-amz-meta-user-type=ApiUser&X-Amz-Algorithm=AWS4-HMAC-SHA256&X-Amz-Credential=ASIAYJG6Z4JI7JM4P2EC%2F20240614%2Fus-west-2%2Fs3%2Faws4_request&X-Amz-Date=20240614T022002Z&X-Amz-SignedHeaders=host&X-Amz-Expires=900&X-Amz-Security-Token=IQoJb3JpZ2luX2VjEAIaCXVzLWVhc3QtMSJHMEUCIQDZF0RnIvwfXJ5%2FbBRoAt1Ki8z5BmvhLNznXBXZAOxQnQIgK7DV7iAB0qVYPc1x%2BGwP4eAAkjQ%2Bxr4y0%2F36spiCsZ0qoQIIm%2F%2F%2F%2F%2F%2F%2F%2F%2F%2F%2FARAAGgw1Njk1NTA0MzA4MDEiDNwGGjSx5fQoTXu15Cr1AWBNwS1tWAjvpxbIz4sa1NC6AnFghBFfCdb0PsB0v3Rhtt%2BG6%2F6J%2FItxV1%2BHt%2BqDRrp0SoZrBadtWNyu%2FJmKcjVXwVk5sCbWmkvvOoavZMmXC1cNFH%2FaKvhJRxshMrpGrvjTNLrjAaJXIcxF%2BtxzJl%2FEFyloTaV%2BL2flRa43cMc%2B%2F6nLRTG9kdDsPsuIvFLe52kXlEGcaXowwE4SiQcyz43PY6xyvakKohzhMzWHBrCDAd29hqN2ZtNIIlnD2UNNCH2ALO9axqJDENrgkP65Unfzwoaj4AMcQCP13txImZCjYF5vg6AohsUd%2FvntX6jC6Q2NrFSpMMjDrrMGOp0B4swtj5HYJMaFdtaFGFCjkMo2DWi12C0nC5jsxVBjZzRj1AuThqdZU5wl2HcTo4qnIUQkga3Pn69DPWHrJyrx0hPEMMvBDlctTD0ZIDyiQMDAE2mEcECr2dy1QBjN5tE7ALrvZMCDXDCR8vlpBz%2BEdKJ7v1uuyzzIY1nG7PbxE3IGGpK2Gbfl5%2BbUFmNaCIAcexSQInFTtpS00W7%2B1w%3D%3D&X-Amz-Signature=a55b1ce997e95c7b44464fe99425d8f6256466db51e3deb17842e7c416861522
p42
sg28
Vtk-framework-shotgunutils_v4.4.15.zip
p43
sg30
Vapplication/zip
p44
sg31
Vupload
p45
sg13
VAttachment
p46
sg15
I14977
sss.