(dp0
Vsg_bundle_data
p1
(dp2
Vtype
p3
VCustomNonProjectEntity13
p4
sVid
p5
I117
sVsg_system_name
p6
Vtk-framework-lmv
p7
sVsg_status_list
p8
Vdepl
p9
sVsg_deprecation_message
p10
NssVsg_version_data
p11
(dp12
Vtype
p13
VCustomNonProjectEntity09
p14
sVid
p15
I2302
sVcode
p16
Vv0.2.2
p17
sVsg_status_list
p18
Vprod
p19
sVdescription
p20
VUpdated brand icons.
p21
sVtags
p22
(lp23
sVsg_detailed_release_notes
p24
(dp25
Vurl
p26
Vhttps://community.shotgridsoftware.com/t/a-new-version-of-tk-framework-lmv-has-been-released/14121/4
p27
sVname
p28
Vv0.2.2
p29
sVcontent_type
p30
NsVlink_type
p31
Vweb
p32
sg13
VAttachment
p33
sg15
I27883
ssVsg_documentation
p34
NsVsg_payload
p35
(dp36
g26
Vhttps://s3-proxy.shotgunstudio.com/d18c13bf0e59a9a82f18be518a1b6b508bcbd774/d18e09fcd9b838956396fea30d13d48c2c71477b/tk-framework-lmv_v0.2.2.zip?response-content-disposition=filename%3D%22tk-framework-lmv_v0.2.2.zip%22&x-amz-meta-user-id=42&x-amz-meta-user-type=ApiUser&X-Amz-Algorithm=AWS4-HMAC-SHA256&X-Amz-Credential=ASIAYJG6Z4JIS4F4DYHI%2F20240614%2Fus-west-2%2Fs3%2Faws4_request&X-Amz-Date=20240614T022107Z&X-Amz-SignedHeaders=host&X-Amz-Expires=900&X-Amz-Security-Token=IQoJb3JpZ2luX2VjEAIaCXVzLWVhc3QtMSJHMEUCIF%2FOCLH%2BzAnPNpou7SzhekQqpwF%2Bj278rqdFKgFhbD7GAiEAnKSlFWNO6IV%2B%2BVuQ63ozPFG%2Bh6nCYLjry1EEmoMtFHwqoQIIm%2F%2F%2F%2F%2F%2F%2F%2F%2F%2F%2FARAAGgw1Njk1NTA0MzA4MDEiDLpE9vZI%2BoP7vUB63ir1Ad2We0zPvEnPYiBGI89iho5sePKkxmt8KWlbJsURophRsfzVl%2FDaOloIEt1UK5lAfhGNweuhgRHcxJYzwy1VK3J1Jkd9Oj9p6YWTyH7E2ksE8qcPEtbkTWgAIFMv%2BrufC9Rmla%2FBvjEmkIh9wzAf1Ho9wWf8kFr2fV5veGM%2FwTu86cDaybKwPVPaAoF2cpl0lO6fKeJuJHCm9kZcVU05sSKJC%2BinRHLhk2tJSg5bcONuaPc6emgwnfBVszXtO0YmkmkQXSdrMmJcrMPpmguDlHdcqumhJWqJ3Z8In5xkvfpYmEJGXnQbzW0mm4Bky%2BELtTAShg4fMObIrrMGOp0BBRH1JL3tyw5ZawkGAabYTKHYrpxzpreiiJopSFPqXIIzsKXBfrpou8yJ0KqDNWoXSnEZYzy3OTvz18auVQG3Jqd8bpRWjaBA8Vkv7skbht0CEyKrjI1t7DpGuMeIl0LxT1oTRQ%2BVyyNKUxrAP0agaMhdY%2BkMt%2F3C4R0CkxtcNSvGAumA3eRhcdAnHHpMW5JWWNb6sYrFcwYIU1owuQ%3D%3D&X-Amz-Signature=07872286773be78ad0dd7f34489722cb3ff924a7247feed3e2b64b651fce9b2f
p37
sg28
Vtk-framework-lmv_v0.2.2.zip
p38
sg30
Vapplication/zip
p39
sg31
Vupload
p40
sg13
VAttachment
p41
sg15
I27822
sss.