(dp0
Vsg_bundle_data
p1
(dp2
Vtype
p3
VCustomNonProjectEntity03
p4
sVid
p5
I16
sVsg_system_name
p6
Vtk-3dsmaxplus
p7
sVsg_status_list
p8
Vdep
p9
sVsg_deprecation_message
p10
VThe tk-3dsmaxplus engine has been deprecated. We recommend that you upgrade your configuration to the new tk-3dsmax (https://github.com/shotgunsoftware/tk-3dsmax) engine. Versions of 3dsMax 2021 and up will only be supported by the new engine. Visit https://developer.shotgunsoftware.com/tk-3dsmax if you want to learn more on how to migrate your environment to the new engine.
p11
ssVsg_version_data
p12
(dp13
Vtype
p14
VCustomNonProjectEntity04
p15
sVid
p16
I3058
sVcode
p17
Vv0.6.2
p18
sVsg_status_list
p19
Vprod
p20
sVdescription
p21
VShotGrid branding updates.
p22
sVtags
p23
(lp24
sVsg_detailed_release_notes
p25
(dp26
Vurl
p27
Vhttps://community.shotgridsoftware.com/t/a-new-version-of-tk-3dsmaxplus-has-been-released/14114/4
p28
sVname
p29
Vv0.6.2
p30
sVcontent_type
p31
NsVlink_type
p32
Vweb
p33
sg14
VAttachment
p34
sg16
I27870
ssVsg_documentation
p35
(dp36
g27
Vhttps://developer.shotgridsoftware.com/219050628
p37
sg29
VDocumentation
p38
sg31
Nsg32
Vweb
p39
sg14
VAttachment
p40
sg16
I27789
ssVsg_payload
p41
(dp42
g27
Vhttps://s3-proxy.shotgunstudio.com/d18c13bf0e59a9a82f18be518a1b6b508bcbd774/af11f27a235b2679855298c5105c352a782764de/tk-3dsmaxplus_v0.6.2.zip?response-content-disposition=filename%3D%22tk-3dsmaxplus_v0.6.2.zip%22&x-amz-meta-user-id=42&x-amz-meta-user-type=ApiUser&X-Amz-Algorithm=AWS4-HMAC-SHA256&X-Amz-Credential=ASIAYJG6Z4JI6FUNW7WR%2F20240614%2Fus-west-2%2Fs3%2Faws4_request&X-Amz-Date=20240614T021710Z&X-Amz-SignedHeaders=host&X-Amz-Expires=900&X-Amz-Security-Token=IQoJb3JpZ2luX2VjEAIaCXVzLWVhc3QtMSJGMEQCIDXHLxbAMxqfYyzOTN6BmqfXwzPXI6D95Kjn%2FyJByKYhAiB3ldeQ%2BwqVFTe9XrnGNmX8tnYaI7j%2F9v5hhIqdNOUzzSqhAgib%2F%2F%2F%2F%2F%2F%2F%2F%2F%2F8BEAAaDDU2OTU1MDQzMDgwMSIMTLLM7m1nWWE%2B3tavKvUBMaKNPyDKyP8phzlZd7I5hp%2FqRDZ9mnHM4AZR2WjhqW0pHccThcj%2BLsXbIUX4soKX51pEiXbvNnKt%2FCBnmiKcXoof8%2B0o7S16yZQLa7shbGtuMw4T7RYVe7wwQEuUov5XBXsNJtcCxg7xwo1RmxBSP6M7HgUPTW55x8Nf%2Bl0DysK%2FdiknOzGzjaO1%2BWOrMv8ro%2BBIiwJJk8dKdd%2FcUfKZ%2BmegUXeZ5Bgn%2FMprdNxKaoYksUOmkO3RqHOFWfm2zgSQ0odkUwdSY6qjzWSNOHbJ8fTCsV2jBrVTGAupfFh06yBmeD5nBkJqV1y6sQGN9r%2FYBEzkmlYwsseuswY6ngHZuXuLbyb1k%2FIoufhLLd%2FUi5pjKZHtRoEfYx3ajgdSp4GKWU27I8vCyoqIvqrjvwJFxGFXSgKzcNEiGvyzm2CTI3NgNqY0DsnFzaooVh2EraX3ueKYYFWjqNDPTgtYjYX7%2BbDrGF2MK7qmNiFlZQObEwd7uepOPmCZ3NljjtEZIdJI%2FWsYEx%2BMhHEDLakM14OEdIDdQeDc7E0kaf6VTw%3D%3D&X-Amz-Signature=9f6add9e08dc08c9b414b00ae50516913b0cad0eabd902ad3c85de5d439c7ceb
p43
sg29
Vtk-3dsmaxplus_v0.6.2.zip
p44
sg31
Vapplication/zip
p45
sg32
Vupload
p46
sg14
VAttachment
p47
sg16
I27790
sss.