(dp0
Vsg_bundle_data
p1
(dp2
Vtype
p3
VCustomNonProjectEntity02
p4
sVid
p5
I129
sVsg_system_name
p6
Vtk-multi-loader2
p7
sVsg_status_list
p8
Vdepl
p9
sVsg_deprecation_message
p10
NssVsg_version_data
p11
(dp12
Vtype
p13
VCustomNonProjectEntity05
p14
sVid
p15
I6475
sVcode
p16
Vv1.24.0
p17
sVsg_status_list
p18
Vprod
p19
sVdescription
p20
VRebranding component for Flow Production Tracking
p21
sVtags
p22
(lp23
sVsg_detailed_release_notes
p24
NsVsg_documentation
p25
(dp26
Vurl
p27
Vhttps://developer.shotgridsoftware.com/219033078
p28
sVname
p29
VDocumentation
p30
sVcontent_type
p31
NsVlink_type
p32
Vweb
p33
sg13
VAttachment
p34
sg15
I32390
ssVsg_payload
p35
(dp36
g27
Vhttps://s3-proxy.shotgunstudio.com/d18c13bf0e59a9a82f18be518a1b6b508bcbd774/179ff2bf68129671c699d9c02e181e221d5bd45e/tk-multi-loader2_v1.24.0.zip?response-content-disposition=filename%3D%22tk-multi-loader2_v1.24.0.zip%22&x-amz-meta-user-id=42&x-amz-meta-user-type=ApiUser&X-Amz-Algorithm=AWS4-HMAC-SHA256&X-Amz-Credential=ASIAYJG6Z4JIYC6MXRW3%2F20240614%2Fus-west-2%2Fs3%2Faws4_request&X-Amz-Date=20240614T022120Z&X-Amz-SignedHeaders=host&X-Amz-Expires=900&X-Amz-Security-Token=IQoJb3JpZ2luX2VjEAIaCXVzLWVhc3QtMSJHMEUCIQC1nfI35HmPLlEvGwROBci5eItlwwFC4peN2n1f4DhZyAIgRtu3t6dUm7pQIyLabj12i%2FvEGhJuJo8Vqb%2Fab5XlPn0qoQIIm%2F%2F%2F%2F%2F%2F%2F%2F%2F%2F%2FARAAGgw1Njk1NTA0MzA4MDEiDKrrzCZ1X1VfXaA7Dir1AZ%2B3HdymkaNPuvrShQ%2FZdkzCYgzRLiAb8yv%2FvFalhqNgO9epsyhEOiO1jUKG%2B2T7jq%2FlNdYr6htSCbqSdnHsAzuAh8QQCQfSZJdkY6dDlj7h0tv6q29ZYWbNdf56LF1OVwYv0hyQkSCZN2Tffo41OxbCLiD8xSIHnMeccquIksAfLDlQX5CL4TtsJBcUX%2Fl1rc%2BSY5EzQrzyVAd4RIN9XeP1C50KYuhNRL3EpuuBGkUdnzLjbwrYGzSkcr2%2FLxr6WKt1IqomyfrUwqoo%2Bn767tBVrNj2YBlnzlYUEI2F7gR6DTQGXc%2BoikUxBDboYcEuhcBVBGDCMNDArrMGOp0BGSEHiMZXizrsXsDQMpXDwcyCpy%2F4CXvZXhrkMpBNlV5Ok%2BYfY61loTcNGucydg%2FN%2BBEKl1QeN32a0VabSRug7rM9LjyK0X9NrklzBJBfAwLJrgbNLUy0%2FMHdT%2BkEJbjga2K8oqZWlMD8iGRf0rP%2BuE5nyK0hth9K5pfv7HHQumruy6FbE2VZCeH%2BOQ161GglAO%2B6u3%2BHP8BfsTMNDQ%3D%3D&X-Amz-Signature=b184c084120e91c6b75d81a3d119dce8819cc6db943aac8f2a387f3907d76ef3
p37
sg29
Vtk-multi-loader2_v1.24.0.zip
p38
sg31
Vapplication/zip
p39
sg32
Vupload
p40
sg13
VAttachment
p41
sg15
I32391
sss.